; Function Attrs: mustprogress nofree norecurse nosync nounwind willreturn memory(none) uwtable
define internal noundef zeroext i1 @HIDAPI_Driver8BitDo_IsSupportedDevice(ptr readnone captures(none) %0, ptr readnone captures(none) %1, i32 %2, i16 noundef zeroext %3, i16 noundef zeroext %4, i16 zeroext %5, i32 %6, i32 %7, i32 %8, i32 %9) #1 {
  %11 = icmp eq i16 %3, 11720
  br i1 %11, label %12, label %13

12:                                               ; preds = %10
  switch i16 %4, label %13 [
    i16 24576, label %14
    i16 24832, label %14
    i16 24577, label %14
    i16 24833, label %14
    i16 24579, label %14
    i16 24582, label %14
    i16 24594, label %14
  ]

13:                                               ; preds = %12, %10
  br label %14

14:                                               ; preds = %12, %12, %12, %12, %12, %12, %12, %13
  %.0 = phi i1 [ false, %13 ], [ true, %12 ], [ true, %12 ], [ true, %12 ], [ true, %12 ], [ true, %12 ], [ true, %12 ], [ true, %12 ]
  ret i1 %.0
}